; Function Attrs: mustprogress uwtable
define hidden void @_ZN4cvc58internal6theory7strings4Word6getNthENS0_12NodeTemplateILb0EEEm(ptr dead_on_unwind noalias writable sret(%"class.cvc5::internal::NodeTemplate") align 8 %0, ptr noundef readonly captures(none) %1, i64 noundef %2) local_unnamed_addr #3 align 2 personality ptr @__gxx_personality_v0 {
  %4 = alloca %"class.cvc5::internal::Rational", align 8
  %5 = alloca %"class.cvc5::internal::FatalStream", align 1
  %6 = load ptr, ptr %1, align 8, !tbaa !28
  %7 = getelementptr inbounds nuw i8, ptr %6, i64 8
  %8 = load i64, ptr %7, align 8
  %9 = trunc i64 %8 to i32
  %10 = and i32 %9, 1023
  switch i32 %10, label %46 [
    i32 341, label %11
    i32 343, label %26
  ]

11:                                               ; preds = %3
  %12 = tail call noundef nonnull align 8 dereferenceable(24) ptr @_ZNK4cvc58internal4expr9NodeValue8getConstINS0_6StringEEERKT_v(ptr noundef nonnull align 8 dereferenceable(24) %6)
  %13 = tail call noundef ptr @_ZN4cvc58internal11NodeManager9currentNMEv()
  call void @llvm.lifetime.start.p0(i64 32, ptr nonnull %4) #21
  %14 = load ptr, ptr %12, align 8, !tbaa !11
  %15 = getelementptr inbounds nuw i32, ptr %14, i64 %2
  %16 = load i32, ptr %15, align 4, !tbaa !39
  call void @_ZN4cvc58internal8RationalC2Ej(ptr noundef nonnull align 8 dereferenceable(32) %4, i32 noundef %16)
  invoke void @_ZN4cvc58internal11NodeManager10mkConstIntERKNS0_8RationalE(ptr dead_on_unwind writable sret(%"class.cvc5::internal::NodeTemplate") align 8 %0, ptr noundef nonnull align 8 dereferenceable(3560) %13, ptr noundef nonnull align 8 dereferenceable(32) %4)
          to label %17 unwind label %21

17:                                               ; preds = %11
  invoke void @__gmpq_clear(ptr noundef nonnull align 8 dereferenceable(32) %4)
          to label %_ZN4cvc58internal8RationalD2Ev.exit unwind label %18

18:                                               ; preds = %17
  %19 = landingpad { ptr, i32 }
          catch ptr null
  %20 = extractvalue { ptr, i32 } %19, 0
  call void @__clang_call_terminate(ptr %20) #23
  unreachable

_ZN4cvc58internal8RationalD2Ev.exit:              ; preds = %17
  call void @llvm.lifetime.end.p0(i64 32, ptr nonnull %4) #21
  br label %_ZN4cvc58internal12NodeTemplateILb1EEC2ERKS2_.exit

21:                                               ; preds = %11
  %22 = landingpad { ptr, i32 }
          cleanup
  invoke void @__gmpq_clear(ptr noundef nonnull align 8 dereferenceable(32) %4)
          to label %_ZN4cvc58internal8RationalD2Ev.exit7 unwind label %23

23:                                               ; preds = %21
  %24 = landingpad { ptr, i32 }
          catch ptr null
  %25 = extractvalue { ptr, i32 } %24, 0
  call void @__clang_call_terminate(ptr %25) #23
  unreachable

_ZN4cvc58internal8RationalD2Ev.exit7:             ; preds = %21
  call void @llvm.lifetime.end.p0(i64 32, ptr nonnull %4) #21
  resume { ptr, i32 } %22

26:                                               ; preds = %3
  %27 = tail call noundef nonnull align 8 dereferenceable(32) ptr @_ZNK4cvc58internal4expr9NodeValue8getConstINS0_8SequenceEEERKT_v(ptr noundef nonnull align 8 dereferenceable(24) %6)
  %28 = tail call noundef nonnull align 8 dereferenceable(24) ptr @_ZNK4cvc58internal8Sequence6getVecEv(ptr noundef nonnull align 8 dereferenceable(32) %27)
  %29 = load ptr, ptr %28, align 8, !tbaa !16
  %30 = getelementptr inbounds nuw %"class.cvc5::internal::NodeTemplate", ptr %29, i64 %2
  %31 = load ptr, ptr %30, align 8, !tbaa !20
  store ptr %31, ptr %0, align 8, !tbaa !20
  %32 = load i64, ptr %31, align 8
  %33 = lshr i64 %32, 40
  %34 = trunc nuw nsw i64 %33 to i32
  %35 = and i32 %34, 1048575
  %36 = icmp samesign ult i32 %35, 1048574
  br i1 %36, label %37, label %42, !prof !41

37:                                               ; preds = %26
  %38 = add i64 %32, 1099511627776
  %39 = and i64 %38, 1152920405095219200
  %40 = and i64 %32, -1152920405095219201
  %41 = or disjoint i64 %39, %40
  store i64 %41, ptr %31, align 8
  br label %_ZN4cvc58internal12NodeTemplateILb1EEC2ERKS2_.exit

42:                                               ; preds = %26
  %43 = icmp eq i32 %35, 1048574
  br i1 %43, label %44, label %_ZN4cvc58internal12NodeTemplateILb1EEC2ERKS2_.exit, !prof !15

44:                                               ; preds = %42
  %45 = or i64 %32, 1152920405095219200
  store i64 %45, ptr %31, align 8
  tail call void @_ZN4cvc58internal4expr9NodeValue20markRefCountMaxedOutEv(ptr noundef nonnull align 8 dereferenceable(24) %31)
  br label %_ZN4cvc58internal12NodeTemplateILb1EEC2ERKS2_.exit

46:                                               ; preds = %3
  call void @llvm.lifetime.start.p0(i64 1, ptr nonnull %5) #21
  call void @_ZN4cvc58internal11FatalStreamC1EPKcS3_i(ptr noundef nonnull align 1 dereferenceable(1) %5, ptr noundef nonnull @__PRETTY_FUNCTION__._ZN4cvc58internal6theory7strings4Word6getNthENS0_12NodeTemplateILb0EEEm, ptr noundef nonnull @.str, i32 noundef 142)
  %47 = invoke noundef nonnull align 8 dereferenceable(8) ptr @_ZN4cvc58internal11FatalStream6streamEv(ptr noundef nonnull align 1 dereferenceable(1) %5)
          to label %48 unwind label %51

48:                                               ; preds = %46
  %49 = invoke noundef nonnull align 8 dereferenceable(8) ptr @_ZStlsISt11char_traitsIcEERSt13basic_ostreamIcT_ES5_PKc(ptr noundef nonnull align 8 dereferenceable(8) %47, ptr noundef nonnull @.str.1)
          to label %50 unwind label %51

50:                                               ; preds = %48
  call void @_ZN4cvc58internal11FatalStreamD1Ev(ptr noundef nonnull align 1 dereferenceable(1) %5) #23
  unreachable

51:                                               ; preds = %48, %46
  %52 = landingpad { ptr, i32 }
          cleanup
  call void @_ZN4cvc58internal11FatalStreamD1Ev(ptr noundef nonnull align 1 dereferenceable(1) %5) #23
  unreachable

_ZN4cvc58internal12NodeTemplateILb1EEC2ERKS2_.exit: ; preds = %44, %42, %37, %_ZN4cvc58internal8RationalD2Ev.exit
  ret void
}